; Function Attrs: null_pointer_is_valid sspstrong uwtable
define internal noundef i32 @cigi3_add_line_of_sight_segment_request(ptr noundef %0, ptr readnone captures(none) %1, ptr noundef %2, ptr readnone captures(none) %3) #0 {
  %5 = load i32, ptr @hf_cigi3_line_of_sight_segment_request_los_id, align 4
  %.b80 = load i1, ptr @cigi_byte_order, align 4
  %6 = select i1 %.b80, i32 -2147483648, i32 0
  %7 = tail call ptr @proto_tree_add_item(ptr noundef %2, i32 noundef %5, ptr noundef %0, i32 noundef 0, i32 noundef 2, i32 noundef %6)
  %8 = load i32, ptr @hf_cigi3_line_of_sight_segment_request_type, align 4
  %.b79 = load i1, ptr @cigi_byte_order, align 4
  %9 = select i1 %.b79, i32 -2147483648, i32 0
  %10 = tail call ptr @proto_tree_add_item(ptr noundef %2, i32 noundef %8, ptr noundef %0, i32 noundef 2, i32 noundef 1, i32 noundef %9)
  %11 = load i32, ptr @hf_cigi3_line_of_sight_segment_request_source_coord, align 4
  %.b78 = load i1, ptr @cigi_byte_order, align 4
  %12 = select i1 %.b78, i32 -2147483648, i32 0
  %13 = tail call ptr @proto_tree_add_item(ptr noundef %2, i32 noundef %11, ptr noundef %0, i32 noundef 2, i32 noundef 1, i32 noundef %12)
  %14 = load i32, ptr @hf_cigi3_line_of_sight_segment_request_destination_coord, align 4
  %.b77 = load i1, ptr @cigi_byte_order, align 4
  %15 = select i1 %.b77, i32 -2147483648, i32 0
  %16 = tail call ptr @proto_tree_add_item(ptr noundef %2, i32 noundef %14, ptr noundef %0, i32 noundef 2, i32 noundef 1, i32 noundef %15)
  %17 = load i32, ptr @hf_cigi3_line_of_sight_segment_request_response_coord, align 4
  %.b76 = load i1, ptr @cigi_byte_order, align 4
  %18 = select i1 %.b76, i32 -2147483648, i32 0
  %19 = tail call ptr @proto_tree_add_item(ptr noundef %2, i32 noundef %17, ptr noundef %0, i32 noundef 2, i32 noundef 1, i32 noundef %18)
  %20 = load i32, ptr @cigi_minor_version, align 4
  %21 = icmp sgt i32 %20, 1
  br i1 %21, label %22, label %26

22:                                               ; preds = %4
  %23 = load i32, ptr @hf_cigi3_2_line_of_sight_segment_request_destination_entity_id_valid, align 4
  %.b75 = load i1, ptr @cigi_byte_order, align 4
  %24 = select i1 %.b75, i32 -2147483648, i32 0
  %25 = tail call ptr @proto_tree_add_item(ptr noundef %2, i32 noundef %23, ptr noundef %0, i32 noundef 2, i32 noundef 1, i32 noundef %24)
  br label %26

26:                                               ; preds = %22, %4
  %27 = load i32, ptr @hf_cigi3_line_of_sight_segment_request_alpha_threshold, align 4
  %.b74 = load i1, ptr @cigi_byte_order, align 4
  %28 = select i1 %.b74, i32 -2147483648, i32 0
  %29 = tail call ptr @proto_tree_add_item(ptr noundef %2, i32 noundef %27, ptr noundef %0, i32 noundef 3, i32 noundef 1, i32 noundef %28)
  %30 = load i32, ptr @hf_cigi3_line_of_sight_segment_request_source_entity_id, align 4
  %.b73 = load i1, ptr @cigi_byte_order, align 4
  %31 = select i1 %.b73, i32 -2147483648, i32 0
  %32 = tail call ptr @proto_tree_add_item(ptr noundef %2, i32 noundef %30, ptr noundef %0, i32 noundef 4, i32 noundef 2, i32 noundef %31)
  %33 = load i32, ptr @hf_cigi3_line_of_sight_segment_request_source_lat_xoff, align 4
  %.b72 = load i1, ptr @cigi_byte_order, align 4
  %34 = select i1 %.b72, i32 -2147483648, i32 0
  %35 = tail call ptr @proto_tree_add_item(ptr noundef %2, i32 noundef %33, ptr noundef %0, i32 noundef 6, i32 noundef 8, i32 noundef %34)
  %36 = load i32, ptr @hf_cigi3_line_of_sight_segment_request_source_lon_yoff, align 4
  %.b71 = load i1, ptr @cigi_byte_order, align 4
  %37 = select i1 %.b71, i32 -2147483648, i32 0
  %38 = tail call ptr @proto_tree_add_item(ptr noundef %2, i32 noundef %36, ptr noundef %0, i32 noundef 14, i32 noundef 8, i32 noundef %37)
  %39 = load i32, ptr @hf_cigi3_line_of_sight_segment_request_source_alt_zoff, align 4
  %.b70 = load i1, ptr @cigi_byte_order, align 4
  %40 = select i1 %.b70, i32 -2147483648, i32 0
  %41 = tail call ptr @proto_tree_add_item(ptr noundef %2, i32 noundef %39, ptr noundef %0, i32 noundef 22, i32 noundef 8, i32 noundef %40)
  %42 = load i32, ptr @hf_cigi3_line_of_sight_segment_request_destination_lat_xoff, align 4
  %.b69 = load i1, ptr @cigi_byte_order, align 4
  %43 = select i1 %.b69, i32 -2147483648, i32 0
  %44 = tail call ptr @proto_tree_add_item(ptr noundef %2, i32 noundef %42, ptr noundef %0, i32 noundef 30, i32 noundef 8, i32 noundef %43)
  %45 = load i32, ptr @hf_cigi3_line_of_sight_segment_request_destination_lon_yoff, align 4
  %.b68 = load i1, ptr @cigi_byte_order, align 4
  %46 = select i1 %.b68, i32 -2147483648, i32 0
  %47 = tail call ptr @proto_tree_add_item(ptr noundef %2, i32 noundef %45, ptr noundef %0, i32 noundef 38, i32 noundef 8, i32 noundef %46)
  %48 = load i32, ptr @hf_cigi3_line_of_sight_segment_request_destination_alt_zoff, align 4
  %.b67 = load i1, ptr @cigi_byte_order, align 4
  %49 = select i1 %.b67, i32 -2147483648, i32 0
  %50 = tail call ptr @proto_tree_add_item(ptr noundef %2, i32 noundef %48, ptr noundef %0, i32 noundef 46, i32 noundef 8, i32 noundef %49)
  %51 = load i32, ptr @hf_cigi3_line_of_sight_segment_request_material_mask, align 4
  %.b66 = load i1, ptr @cigi_byte_order, align 4
  %52 = select i1 %.b66, i32 -2147483648, i32 0
  %53 = tail call ptr @proto_tree_add_item(ptr noundef %2, i32 noundef %51, ptr noundef %0, i32 noundef 54, i32 noundef 4, i32 noundef %52)
  %54 = load i32, ptr @cigi_minor_version, align 4
  %55 = icmp sgt i32 %54, 1
  br i1 %55, label %56, label %63

56:                                               ; preds = %26
  %57 = load i32, ptr @hf_cigi3_2_line_of_sight_segment_request_update_period, align 4
  %.b65 = load i1, ptr @cigi_byte_order, align 4
  %58 = select i1 %.b65, i32 -2147483648, i32 0
  %59 = tail call ptr @proto_tree_add_item(ptr noundef %2, i32 noundef %57, ptr noundef %0, i32 noundef 58, i32 noundef 1, i32 noundef %58)
  %60 = load i32, ptr @hf_cigi3_2_line_of_sight_segment_request_destination_entity_id, align 4
  %.b = load i1, ptr @cigi_byte_order, align 4
  %61 = select i1 %.b, i32 -2147483648, i32 0
  %62 = tail call ptr @proto_tree_add_item(ptr noundef %2, i32 noundef %60, ptr noundef %0, i32 noundef 60, i32 noundef 2, i32 noundef %61)
  br label %63

63:                                               ; preds = %26, %56
  ret i32 62
}